target datalayout = "e-m:e-p270:32:32-p271:32:32-p272:64:64-i64:64-i128:128-f80:128-n8:16:32:64-S128"
target triple = "x86_64-pc-linux-gnu"

%struct.AVFilterContext = type { ptr, ptr, ptr, ptr, ptr, i32, ptr, ptr, i32, ptr, ptr, i32, i32, ptr, ptr, ptr, ptr, i32, ptr, i32, i32 }
%struct.GradFunContext = type { ptr, float, i32, i32, i32, i32, i32, ptr, ptr, ptr }

@.str.9 = private unnamed_addr constant [26 x i8] c"threshold:%.2f radius:%d\0A\00", align 1

; Function Attrs: alwaysinline nounwind willreturn memory(none) uwtable
define internal i32 @av_clip_c(i32 noundef %0, i32 noundef %1, i32 noundef %2) #3 {
  %4 = alloca i32, align 4
  %5 = alloca i32, align 4
  %6 = alloca i32, align 4
  %7 = alloca i32, align 4
  store i32 %0, ptr %5, align 4, !tbaa !11
  store i32 %1, ptr %6, align 4, !tbaa !11
  store i32 %2, ptr %7, align 4, !tbaa !11
  %8 = load i32, ptr %5, align 4, !tbaa !11
  %9 = load i32, ptr %6, align 4, !tbaa !11
  %10 = icmp slt i32 %8, %9
  br i1 %10, label %11, label %13

11:                                               ; preds = %3
  %12 = load i32, ptr %6, align 4, !tbaa !11
  store i32 %12, ptr %4, align 4
  br label %21

13:                                               ; preds = %3
  %14 = load i32, ptr %5, align 4, !tbaa !11
  %15 = load i32, ptr %7, align 4, !tbaa !11
  %16 = icmp sgt i32 %14, %15
  br i1 %16, label %17, label %19

17:                                               ; preds = %13
  %18 = load i32, ptr %7, align 4, !tbaa !11
  store i32 %18, ptr %4, align 4
  br label %21

19:                                               ; preds = %13
  %20 = load i32, ptr %5, align 4, !tbaa !11
  store i32 %20, ptr %4, align 4
  br label %21

21:                                               ; preds = %19, %17, %11
  %22 = load i32, ptr %4, align 4
  ret i32 %22
}

; Function Attrs: cold nounwind optsize uwtable
define internal i32 @init(ptr noundef %0) #4 {
  %2 = alloca ptr, align 8
  %3 = alloca ptr, align 8
  store ptr %0, ptr %2, align 8, !tbaa !19
  call void @llvm.lifetime.start.p0(i64 8, ptr %3) #8
  %4 = load ptr, ptr %2, align 8, !tbaa !19
  %5 = getelementptr inbounds nuw %struct.AVFilterContext, ptr %4, i32 0, i32 9
  %6 = load ptr, ptr %5, align 8, !tbaa !21
  store ptr %6, ptr %3, align 8, !tbaa !32
  %7 = load ptr, ptr %3, align 8, !tbaa !32
  %8 = getelementptr inbounds nuw %struct.GradFunContext, ptr %7, i32 0, i32 1
  %9 = load float, ptr %8, align 8, !tbaa !34
  %10 = fdiv nsz float 3.276800e+04, %9
  %11 = fptosi float %10 to i32
  %12 = load ptr, ptr %3, align 8, !tbaa !32
  %13 = getelementptr inbounds nuw %struct.GradFunContext, ptr %12, i32 0, i32 2
  store i32 %11, ptr %13, align 4, !tbaa !37
  %14 = load ptr, ptr %3, align 8, !tbaa !32
  %15 = getelementptr inbounds nuw %struct.GradFunContext, ptr %14, i32 0, i32 3
  %16 = load i32, ptr %15, align 8, !tbaa !38
  %17 = add nsw i32 %16, 1
  %18 = and i32 %17, -2
  %19 = call i32 @av_clip_c(i32 noundef %18, i32 noundef 4, i32 noundef 32) #9
  %20 = load ptr, ptr %3, align 8, !tbaa !32
  %21 = getelementptr inbounds nuw %struct.GradFunContext, ptr %20, i32 0, i32 3
  store i32 %19, ptr %21, align 8, !tbaa !38
  %22 = load ptr, ptr %3, align 8, !tbaa !32
  %23 = getelementptr inbounds nuw %struct.GradFunContext, ptr %22, i32 0, i32 9
  store ptr @ff_gradfun_blur_line_c, ptr %23, align 8, !tbaa !39
  %24 = load ptr, ptr %3, align 8, !tbaa !32
  %25 = getelementptr inbounds nuw %struct.GradFunContext, ptr %24, i32 0, i32 8
  store ptr @ff_gradfun_filter_line_c, ptr %25, align 8, !tbaa !40
  %26 = load ptr, ptr %2, align 8, !tbaa !19
  %27 = load ptr, ptr %3, align 8, !tbaa !32
  %28 = getelementptr inbounds nuw %struct.GradFunContext, ptr %27, i32 0, i32 1
  %29 = load float, ptr %28, align 8, !tbaa !34
  %30 = fpext nsz float %29 to double
  %31 = load ptr, ptr %3, align 8, !tbaa !32
  %32 = getelementptr inbounds nuw %struct.GradFunContext, ptr %31, i32 0, i32 3
  %33 = load i32, ptr %32, align 8, !tbaa !38
  call void (ptr, i32, ptr, ...) @av_log(ptr noundef %26, i32 noundef 40, ptr noundef @.str.9, double noundef %30, i32 noundef %33)
  call void @llvm.lifetime.end.p0(i64 8, ptr %3) #8
  ret i32 0
}