; Function Attrs: cold nounwind optsize uwtable
define internal noundef i32 @init(ptr noundef %0) #2 {
  %2 = getelementptr inbounds nuw i8, ptr %0, i64 72
  %3 = load ptr, ptr %2, align 8, !tbaa !12
  %4 = getelementptr inbounds nuw i8, ptr %3, i64 8
  %5 = load float, ptr %4, align 8, !tbaa !26
  %6 = fdiv nsz float 3.276800e+04, %5
  %7 = fptosi float %6 to i32
  %8 = getelementptr inbounds nuw i8, ptr %3, i64 12
  store i32 %7, ptr %8, align 4, !tbaa !30
  %9 = getelementptr inbounds nuw i8, ptr %3, i64 16
  %10 = load i32, ptr %9, align 8, !tbaa !31
  %11 = add nsw i32 %10, 1
  %12 = and i32 %11, -2
  %13 = tail call i32 @llvm.smax.i32(i32 %12, i32 4)
  %14 = tail call i32 @llvm.umin.i32(i32 %13, i32 32)
  store i32 %14, ptr %9, align 8, !tbaa !31
  %15 = getelementptr inbounds nuw i8, ptr %3, i64 48
  store ptr @ff_gradfun_blur_line_c, ptr %15, align 8, !tbaa !32
  %16 = getelementptr inbounds nuw i8, ptr %3, i64 40
  store ptr @ff_gradfun_filter_line_c, ptr %16, align 8, !tbaa !33
  %17 = fpext nsz float %5 to double
  tail call void (ptr, i32, ptr, ...) @av_log(ptr noundef %0, i32 noundef 40, ptr noundef nonnull @.str.9, double noundef %17, i32 noundef %14) #7
  ret i32 0
}